target datalayout = "e-m:e-p270:32:32-p271:32:32-p272:64:64-i64:64-i128:128-f80:128-n8:16:32:64-S128"
target triple = "x86_64-pc-linux-gnu"

%"struct.folly::NetworkSocket" = type { i32 }

; Function Attrs: mustprogress nounwind uwtable
define linkonce_odr noundef i32 @_ZN5folly6netops6detail23SocketFileDescriptorMap5closeEi(i32 noundef %0) #3 comdat align 2 personality ptr @__gxx_personality_v0 {
  %2 = alloca i32, align 4
  store i32 %0, ptr %2, align 4, !tbaa !15
  %3 = load i32, ptr %2, align 4, !tbaa !15
  %4 = invoke i32 @close(i32 noundef %3)
          to label %5 unwind label %6

5:                                                ; preds = %1
  ret i32 %4

6:                                                ; preds = %1
  %7 = landingpad { ptr, i32 }
          catch ptr null
  %8 = extractvalue { ptr, i32 } %7, 0
  call void @__clang_call_terminate(ptr %8) #9
  unreachable
}

; Function Attrs: mustprogress nounwind uwtable
define noundef i32 @_ZN5folly6netops5closeENS_13NetworkSocketE(i32 %0) #3 {
  %2 = alloca %"struct.folly::NetworkSocket", align 4
  %3 = getelementptr inbounds nuw %"struct.folly::NetworkSocket", ptr %2, i32 0, i32 0
  store i32 %0, ptr %3, align 4
  %4 = getelementptr inbounds nuw %"struct.folly::NetworkSocket", ptr %2, i32 0, i32 0
  %5 = load i32, ptr %4, align 4, !tbaa !18
  %6 = call noundef i32 @_ZN5folly6netops6detail23SocketFileDescriptorMap5closeEi(i32 noundef %5) #8
  ret i32 %6
}