; Function Attrs: mustprogress nounwind uwtable
define noundef i32 @_ZN5folly6netops5closeENS_13NetworkSocketE(i32 %0) local_unnamed_addr #3 personality ptr @__gxx_personality_v0 {
  %2 = invoke i32 @close(i32 noundef %0)
          to label %_ZN5folly6netops6detail23SocketFileDescriptorMap5closeEi.exit unwind label %3

3:                                                ; preds = %1
  %4 = landingpad { ptr, i32 }
          catch ptr null
  %5 = extractvalue { ptr, i32 } %4, 0
  tail call void @__clang_call_terminate(ptr %5) #12
  unreachable

_ZN5folly6netops6detail23SocketFileDescriptorMap5closeEi.exit: ; preds = %1
  ret i32 %2
}